(dp1
S'cutoff'
p2
F1
sS'pretrained_word_embeddings_file'
p3
S''
sS'valid_triples'
p4
S'Data/train.word.pkl'
p5
sS'time_stop'
p6
I1440
sS'seqlen'
p7
I20
sS'qdim'
p8
I256
sS'bootstrap_from_semantic_information'
p9
I00
sS'patience'
p10
I2
sS'prefix'
p11
S'train_'
p12
sS'seed'
p13
I1234
sS'sort_k_batches'
p14
I10
sS'unk_sym'
p15
I0
sS'triple_step_type'
p16
S'gated'
p17
sS'direct_connection_between_encoders_and_decoder'
p18
I00
sS'use_nce'
p19
I00
sS'train_freq'
p20
I100
sS'run_id'
p21
S'1574685065.51'
p22
sS'deep_out'
p23
I01
sS'idim'
p24
I71
sS'bidirectional_utterance_encoder'
p25
I00
sS'maxout_out'
p26
I01
sS'loopIters'
p27
I10
sS'rankdim'
p28
I128
sS'sent_step_type'
p29
g17
sS'tie_encoder_parameters'
p30
I00
sS'dictionary'
p31
S'Data/train.dict.pkl'
p32
sS'valid_freq'
p33
I3000
sS'save_dir'
p34
S'model/'
p35
sS'dcgm_encoder'
p36
I00
sS'updater'
p37
S'adam'
p38
sS'test_triples'
p39
S'Data/validation.word.pkl'
p40
sS'bs'
p41
I128
sS'decoder_bias_type'
p42
S'all'
p43
sS'encode_with_l2_pooling'
p44
I00
sS'loop_iters'
p45
I10
sS'train_sentences'
p46
g5
sS'eos_sym'
p47
I2
sS'train_triples'
p48
g5
sS'fix_pretrained_word_embeddings'
p49
I00
sS'level'
p50
S'DEBUG'
p51
sS'add_semantic_information_to_utterance_decoder'
p52
I00
sS'rec_activation'
p53
S'lambda x: T.tanh(x)'
p54
sS'step_type'
p55
g17
sS'initialize_from_pretrained_word_embeddings'
p56
I00
sS'sdim'
p57
I1000
sS'sent_rec_activation'
p58
g54
sS'valid_sentences'
p59
g40
sS'triple_rec_activation'
p60
g54
sS'sos_sym'
p61
I1
s.